; Function Attrs: nounwind uwtable
define void @col_append_fstr(ptr noundef readonly %0, i32 noundef %1, ptr noundef readonly captures(none) %2, ...) local_unnamed_addr #0 {
  %4 = alloca [1 x %struct.__va_list_tag], align 16
  %5 = icmp eq ptr %0, null
  br i1 %5, label %col_get_writable.exit.thread, label %6

6:                                                ; preds = %3
  %7 = icmp eq i32 %1, -1
  %.phi.trans.insert.i = getelementptr inbounds nuw i8, ptr %0, i64 56
  %.pre.i = load i32, ptr %.phi.trans.insert.i, align 8
  br i1 %7, label %col_get_writable.exit, label %8

8:                                                ; preds = %6
  %9 = icmp eq i32 %.pre.i, 0
  br i1 %9, label %col_get_writable.exit.thread, label %10

10:                                               ; preds = %8
  %11 = getelementptr inbounds nuw i8, ptr %0, i64 24
  %12 = load ptr, ptr %11, align 8
  %13 = sext i32 %1 to i64
  %14 = getelementptr i32, ptr %12, i64 %13
  %15 = load i32, ptr %14, align 4
  %16 = icmp sgt i32 %15, -1
  br i1 %16, label %.preheader.i, label %col_get_writable.exit.thread

.preheader.i:                                     ; preds = %10
  %17 = getelementptr inbounds nuw i8, ptr %0, i64 32
  %18 = load ptr, ptr %17, align 8
  %19 = getelementptr i32, ptr %18, i64 %13
  %20 = load i32, ptr %19, align 4
  %.not22.i = icmp sgt i32 %15, %20
  br i1 %.not22.i, label %col_get_writable.exit.thread, label %.lr.ph.i

.lr.ph.i:                                         ; preds = %.preheader.i
  %21 = getelementptr inbounds nuw i8, ptr %0, i64 16
  %22 = load ptr, ptr %21, align 8
  br label %25

23:                                               ; preds = %25
  %24 = add i32 %.01723.i, 1
  %.not.i = icmp sgt i32 %24, %20
  br i1 %.not.i, label %col_get_writable.exit.thread, label %25, !llvm.loop !9

25:                                               ; preds = %23, %.lr.ph.i
  %.01723.i = phi i32 [ %15, %.lr.ph.i ], [ %24, %23 ]
  %26 = sext i32 %.01723.i to i64
  %27 = getelementptr %struct.col_item_t, ptr %22, i64 %26
  %28 = getelementptr inbounds nuw i8, ptr %27, i64 8
  %29 = load ptr, ptr %28, align 8
  %30 = getelementptr i32, ptr %29, i64 %13
  %31 = load i32, ptr %30, align 4
  %.not21.i = icmp eq i32 %31, 0
  br i1 %.not21.i, label %23, label %32

32:                                               ; preds = %25
  %33 = getelementptr inbounds nuw i8, ptr %27, i64 76
  %34 = load i32, ptr %33, align 4
  br label %col_get_writable.exit

col_get_writable.exit:                            ; preds = %6, %32
  %.0.i = phi i32 [ %34, %32 ], [ %.pre.i, %6 ]
  %.not = icmp eq i32 %.0.i, 0
  br i1 %.not, label %col_get_writable.exit.thread, label %35

35:                                               ; preds = %col_get_writable.exit
  %36 = getelementptr inbounds nuw i8, ptr %0, i64 24
  %37 = load ptr, ptr %36, align 8
  %38 = sext i32 %1 to i64
  %39 = getelementptr i32, ptr %37, i64 %38
  %40 = load i32, ptr %39, align 4
  %41 = icmp sgt i32 %40, -1
  br i1 %41, label %42, label %col_get_writable.exit.thread

42:                                               ; preds = %35
  call void @llvm.va_start.p0(ptr nonnull %4)
  call fastcc void @col_do_append_fstr(ptr noundef nonnull %0, i32 noundef %1, ptr noundef null, ptr noundef %2, ptr noundef %4)
  call void @llvm.va_end.p0(ptr nonnull %4)
  br label %col_get_writable.exit.thread

col_get_writable.exit.thread:                     ; preds = %23, %8, %.preheader.i, %10, %3, %col_get_writable.exit, %35, %42
  ret void
}